target datalayout = "e-m:e-p270:32:32-p271:32:32-p272:64:64-i64:64-i128:128-f80:128-n8:16:32:64-S128"
target triple = "x86_64-pc-linux-gnu"

%struct.OptionGroup = type { ptr, ptr, ptr, i32, ptr, ptr, ptr, ptr }
%struct.OptionParseContext = type { %struct.OptionGroup, ptr, i32, %struct.OptionGroup }
%struct.OptionGroupList = type { ptr, ptr, i32 }

@swr_opts = global ptr null, align 8
@sws_dict = global ptr null, align 8
@format_opts = global ptr null, align 8
@codec_opts = global ptr null, align 8

; Function Attrs: nounwind uwtable
define void @uninit_opts() #0 {
  call void @av_dict_free(ptr noundef @swr_opts)
  call void @av_dict_free(ptr noundef @sws_dict)
  call void @av_dict_free(ptr noundef @format_opts)
  call void @av_dict_free(ptr noundef @codec_opts)
  ret void
}

; Function Attrs: nounwind uwtable
define void @uninit_parse_context(ptr noundef %0) #0 {
  %2 = alloca ptr, align 8
  %3 = alloca i32, align 4
  %4 = alloca i32, align 4
  %5 = alloca ptr, align 8
  store ptr %0, ptr %2, align 8, !tbaa !90
  call void @llvm.lifetime.start.p0(i64 4, ptr %3) #11
  call void @llvm.lifetime.start.p0(i64 4, ptr %4) #11
  store i32 0, ptr %3, align 4, !tbaa !8
  br label %6

6:                                                ; preds = %67, %1
  %7 = load i32, ptr %3, align 4, !tbaa !8
  %8 = load ptr, ptr %2, align 8, !tbaa !90
  %9 = getelementptr inbounds nuw %struct.OptionParseContext, ptr %8, i32 0, i32 2
  %10 = load i32, ptr %9, align 8, !tbaa !92
  %11 = icmp slt i32 %7, %10
  br i1 %11, label %12, label %70

12:                                               ; preds = %6
  call void @llvm.lifetime.start.p0(i64 8, ptr %5) #11
  %13 = load ptr, ptr %2, align 8, !tbaa !90
  %14 = getelementptr inbounds nuw %struct.OptionParseContext, ptr %13, i32 0, i32 1
  %15 = load ptr, ptr %14, align 8, !tbaa !95
  %16 = load i32, ptr %3, align 4, !tbaa !8
  %17 = sext i32 %16 to i64
  %18 = getelementptr inbounds %struct.OptionGroupList, ptr %15, i64 %17
  store ptr %18, ptr %5, align 8, !tbaa !96
  store i32 0, ptr %4, align 4, !tbaa !8
  br label %19

19:                                               ; preds = %61, %12
  %20 = load i32, ptr %4, align 4, !tbaa !8
  %21 = load ptr, ptr %5, align 8, !tbaa !96
  %22 = getelementptr inbounds nuw %struct.OptionGroupList, ptr %21, i32 0, i32 2
  %23 = load i32, ptr %22, align 8, !tbaa !97
  %24 = icmp slt i32 %20, %23
  br i1 %24, label %25, label %64

25:                                               ; preds = %19
  %26 = load ptr, ptr %5, align 8, !tbaa !96
  %27 = getelementptr inbounds nuw %struct.OptionGroupList, ptr %26, i32 0, i32 1
  %28 = load ptr, ptr %27, align 8, !tbaa !99
  %29 = load i32, ptr %4, align 4, !tbaa !8
  %30 = sext i32 %29 to i64
  %31 = getelementptr inbounds %struct.OptionGroup, ptr %28, i64 %30
  %32 = getelementptr inbounds nuw %struct.OptionGroup, ptr %31, i32 0, i32 2
  call void @av_freep(ptr noundef %32)
  %33 = load ptr, ptr %5, align 8, !tbaa !96
  %34 = getelementptr inbounds nuw %struct.OptionGroupList, ptr %33, i32 0, i32 1
  %35 = load ptr, ptr %34, align 8, !tbaa !99
  %36 = load i32, ptr %4, align 4, !tbaa !8
  %37 = sext i32 %36 to i64
  %38 = getelementptr inbounds %struct.OptionGroup, ptr %35, i64 %37
  %39 = getelementptr inbounds nuw %struct.OptionGroup, ptr %38, i32 0, i32 4
  call void @av_dict_free(ptr noundef %39)
  %40 = load ptr, ptr %5, align 8, !tbaa !96
  %41 = getelementptr inbounds nuw %struct.OptionGroupList, ptr %40, i32 0, i32 1
  %42 = load ptr, ptr %41, align 8, !tbaa !99
  %43 = load i32, ptr %4, align 4, !tbaa !8
  %44 = sext i32 %43 to i64
  %45 = getelementptr inbounds %struct.OptionGroup, ptr %42, i64 %44
  %46 = getelementptr inbounds nuw %struct.OptionGroup, ptr %45, i32 0, i32 5
  call void @av_dict_free(ptr noundef %46)
  %47 = load ptr, ptr %5, align 8, !tbaa !96
  %48 = getelementptr inbounds nuw %struct.OptionGroupList, ptr %47, i32 0, i32 1
  %49 = load ptr, ptr %48, align 8, !tbaa !99
  %50 = load i32, ptr %4, align 4, !tbaa !8
  %51 = sext i32 %50 to i64
  %52 = getelementptr inbounds %struct.OptionGroup, ptr %49, i64 %51
  %53 = getelementptr inbounds nuw %struct.OptionGroup, ptr %52, i32 0, i32 6
  call void @av_dict_free(ptr noundef %53)
  %54 = load ptr, ptr %5, align 8, !tbaa !96
  %55 = getelementptr inbounds nuw %struct.OptionGroupList, ptr %54, i32 0, i32 1
  %56 = load ptr, ptr %55, align 8, !tbaa !99
  %57 = load i32, ptr %4, align 4, !tbaa !8
  %58 = sext i32 %57 to i64
  %59 = getelementptr inbounds %struct.OptionGroup, ptr %56, i64 %58
  %60 = getelementptr inbounds nuw %struct.OptionGroup, ptr %59, i32 0, i32 7
  call void @av_dict_free(ptr noundef %60)
  br label %61

61:                                               ; preds = %25
  %62 = load i32, ptr %4, align 4, !tbaa !8
  %63 = add nsw i32 %62, 1
  store i32 %63, ptr %4, align 4, !tbaa !8
  br label %19, !llvm.loop !100

64:                                               ; preds = %19
  %65 = load ptr, ptr %5, align 8, !tbaa !96
  %66 = getelementptr inbounds nuw %struct.OptionGroupList, ptr %65, i32 0, i32 1
  call void @av_freep(ptr noundef %66)
  call void @llvm.lifetime.end.p0(i64 8, ptr %5) #11
  br label %67

67:                                               ; preds = %64
  %68 = load i32, ptr %3, align 4, !tbaa !8
  %69 = add nsw i32 %68, 1
  store i32 %69, ptr %3, align 4, !tbaa !8
  br label %6, !llvm.loop !101

70:                                               ; preds = %6
  %71 = load ptr, ptr %2, align 8, !tbaa !90
  %72 = getelementptr inbounds nuw %struct.OptionParseContext, ptr %71, i32 0, i32 1
  call void @av_freep(ptr noundef %72)
  %73 = load ptr, ptr %2, align 8, !tbaa !90
  %74 = getelementptr inbounds nuw %struct.OptionParseContext, ptr %73, i32 0, i32 3
  %75 = getelementptr inbounds nuw %struct.OptionGroup, ptr %74, i32 0, i32 2
  call void @av_freep(ptr noundef %75)
  %76 = load ptr, ptr %2, align 8, !tbaa !90
  %77 = getelementptr inbounds nuw %struct.OptionParseContext, ptr %76, i32 0, i32 0
  %78 = getelementptr inbounds nuw %struct.OptionGroup, ptr %77, i32 0, i32 2
  call void @av_freep(ptr noundef %78)
  call void @uninit_opts()
  call void @llvm.lifetime.end.p0(i64 4, ptr %4) #11
  call void @llvm.lifetime.end.p0(i64 4, ptr %3) #11
  ret void
}