; Function Attrs: nounwind uwtable
define void @uninit_parse_context(ptr noundef %0) local_unnamed_addr #0 {
  %2 = getelementptr inbounds nuw i8, ptr %0, i64 72
  %3 = load i32, ptr %2, align 8, !tbaa !70
  %4 = icmp sgt i32 %3, 0
  br i1 %4, label %.lr.ph25, label %._crit_edge26

.lr.ph25:                                         ; preds = %1
  %5 = getelementptr inbounds nuw i8, ptr %0, i64 64
  br label %6

6:                                                ; preds = %.lr.ph25, %._crit_edge
  %indvars.iv28 = phi i64 [ 0, %.lr.ph25 ], [ %indvars.iv.next29, %._crit_edge ]
  %7 = load ptr, ptr %5, align 8, !tbaa !73
  %8 = getelementptr inbounds nuw %struct.OptionGroupList, ptr %7, i64 %indvars.iv28
  %9 = getelementptr inbounds nuw i8, ptr %8, i64 16
  %10 = load i32, ptr %9, align 8, !tbaa !74
  %11 = icmp sgt i32 %10, 0
  br i1 %11, label %.lr.ph, label %._crit_edge

.lr.ph:                                           ; preds = %6
  %12 = getelementptr inbounds nuw i8, ptr %8, i64 8
  br label %13

13:                                               ; preds = %.lr.ph, %13
  %indvars.iv = phi i64 [ 0, %.lr.ph ], [ %indvars.iv.next, %13 ]
  %14 = load ptr, ptr %12, align 8, !tbaa !77
  %15 = getelementptr inbounds nuw %struct.OptionGroup, ptr %14, i64 %indvars.iv, i32 2
  tail call void @av_freep(ptr noundef nonnull %15) #15
  %16 = load ptr, ptr %12, align 8, !tbaa !77
  %17 = getelementptr inbounds nuw %struct.OptionGroup, ptr %16, i64 %indvars.iv, i32 4
  tail call void @av_dict_free(ptr noundef nonnull %17) #15
  %18 = load ptr, ptr %12, align 8, !tbaa !77
  %19 = getelementptr inbounds nuw %struct.OptionGroup, ptr %18, i64 %indvars.iv, i32 5
  tail call void @av_dict_free(ptr noundef nonnull %19) #15
  %20 = load ptr, ptr %12, align 8, !tbaa !77
  %21 = getelementptr inbounds nuw %struct.OptionGroup, ptr %20, i64 %indvars.iv, i32 6
  tail call void @av_dict_free(ptr noundef nonnull %21) #15
  %22 = load ptr, ptr %12, align 8, !tbaa !77
  %23 = getelementptr inbounds nuw %struct.OptionGroup, ptr %22, i64 %indvars.iv, i32 7
  tail call void @av_dict_free(ptr noundef nonnull %23) #15
  %indvars.iv.next = add nuw nsw i64 %indvars.iv, 1
  %24 = load i32, ptr %9, align 8, !tbaa !74
  %25 = sext i32 %24 to i64
  %26 = icmp slt i64 %indvars.iv.next, %25
  br i1 %26, label %13, label %._crit_edge, !llvm.loop !78

._crit_edge:                                      ; preds = %13, %6
  %27 = getelementptr inbounds nuw i8, ptr %8, i64 8
  tail call void @av_freep(ptr noundef nonnull %27) #15
  %indvars.iv.next29 = add nuw nsw i64 %indvars.iv28, 1
  %28 = load i32, ptr %2, align 8, !tbaa !70
  %29 = sext i32 %28 to i64
  %30 = icmp slt i64 %indvars.iv.next29, %29
  br i1 %30, label %6, label %._crit_edge26, !llvm.loop !79

._crit_edge26:                                    ; preds = %._crit_edge, %1
  %31 = getelementptr inbounds nuw i8, ptr %0, i64 64
  tail call void @av_freep(ptr noundef nonnull %31) #15
  %32 = getelementptr inbounds nuw i8, ptr %0, i64 96
  tail call void @av_freep(ptr noundef nonnull %32) #15
  %33 = getelementptr inbounds nuw i8, ptr %0, i64 16
  tail call void @av_freep(ptr noundef nonnull %33) #15
  tail call void @av_dict_free(ptr noundef nonnull @swr_opts) #15
  tail call void @av_dict_free(ptr noundef nonnull @sws_dict) #15
  tail call void @av_dict_free(ptr noundef nonnull @format_opts) #15
  tail call void @av_dict_free(ptr noundef nonnull @codec_opts) #15
  ret void
}